; Function Attrs: nounwind uwtable
define void @Abc_NtkMaxFlowCollectCut_rec(ptr noundef %0, ptr noundef captures(none) %1) local_unnamed_addr #0 {
  %.val2.i = load ptr, ptr %0, align 8
  %3 = getelementptr i8, ptr %0, i64 16
  %.val3.i = load i32, ptr %3, align 8
  %4 = getelementptr inbounds nuw i8, ptr %.val2.i, i64 224
  %5 = add nsw i32 %.val3.i, 1
  tail call fastcc void @Vec_IntFillExtra(ptr noundef nonnull %4, i32 noundef %5)
  %6 = getelementptr i8, ptr %.val2.i, i64 232
  %.val.i.i.i = load ptr, ptr %6, align 8
  %7 = sext i32 %.val3.i to i64
  %8 = getelementptr inbounds i32, ptr %.val.i.i.i, i64 %7
  %9 = load i32, ptr %8, align 4
  %.val.i = load ptr, ptr %0, align 8
  %10 = getelementptr inbounds nuw i8, ptr %.val.i, i64 216
  %11 = load i32, ptr %10, align 8
  %.not = icmp eq i32 %9, %11
  br i1 %.not, label %.critedge, label %12

12:                                               ; preds = %2
  %.val12 = load i32, ptr %3, align 8
  %13 = getelementptr inbounds nuw i8, ptr %.val.i, i64 224
  %14 = add nsw i32 %.val12, 1
  tail call fastcc void @Vec_IntFillExtra(ptr noundef nonnull %13, i32 noundef %14)
  %15 = getelementptr i8, ptr %.val.i, i64 232
  %.val.i.i.i16 = load ptr, ptr %15, align 8
  %16 = sext i32 %.val12 to i64
  %17 = getelementptr inbounds i32, ptr %.val.i.i.i16, i64 %16
  store i32 %11, ptr %17, align 4
  %18 = getelementptr inbounds nuw i8, ptr %0, i64 20
  %19 = load i32, ptr %18, align 4
  %20 = and i32 %19, 16
  %.not11 = icmp eq i32 %20, 0
  br i1 %.not11, label %.preheader, label %24

.preheader:                                       ; preds = %12
  %21 = getelementptr i8, ptr %0, i64 28
  %.val1317 = load i32, ptr %21, align 4
  %22 = icmp sgt i32 %.val1317, 0
  br i1 %22, label %.lr.ph, label %.critedge

.lr.ph:                                           ; preds = %.preheader
  %23 = getelementptr i8, ptr %0, i64 32
  br label %56

24:                                               ; preds = %12
  %25 = getelementptr inbounds nuw i8, ptr %1, i64 4
  %26 = load i32, ptr %25, align 4
  %27 = load i32, ptr %1, align 8
  %28 = icmp eq i32 %26, %27
  br i1 %28, label %29, label %.Vec_PtrGrow.exit11_crit_edge.i

.Vec_PtrGrow.exit11_crit_edge.i:                  ; preds = %24
  %.phi.trans.insert.i = getelementptr inbounds nuw i8, ptr %1, i64 8
  %.pre.i = load ptr, ptr %.phi.trans.insert.i, align 8
  br label %Vec_PtrPush.exit

29:                                               ; preds = %24
  %30 = icmp slt i32 %26, 16
  br i1 %30, label %31, label %39

31:                                               ; preds = %29
  %32 = getelementptr inbounds nuw i8, ptr %1, i64 8
  %33 = load ptr, ptr %32, align 8
  %.not9.i.i = icmp eq ptr %33, null
  br i1 %.not9.i.i, label %36, label %34

34:                                               ; preds = %31
  %35 = tail call dereferenceable_or_null(128) ptr @realloc(ptr noundef nonnull %33, i64 noundef 128) #14
  br label %Vec_PtrGrow.exit.i

36:                                               ; preds = %31
  %37 = tail call noalias dereferenceable_or_null(128) ptr @malloc(i64 noundef 128) #13
  br label %Vec_PtrGrow.exit.i

Vec_PtrGrow.exit.i:                               ; preds = %36, %34
  %38 = phi ptr [ %35, %34 ], [ %37, %36 ]
  store ptr %38, ptr %32, align 8
  store i32 16, ptr %1, align 8
  br label %Vec_PtrPush.exit

39:                                               ; preds = %29
  %40 = shl nuw nsw i32 %26, 1
  %41 = getelementptr inbounds nuw i8, ptr %1, i64 8
  %42 = load ptr, ptr %41, align 8
  %.not9.i10.i = icmp eq ptr %42, null
  %43 = zext nneg i32 %40 to i64
  %44 = shl nuw nsw i64 %43, 3
  br i1 %.not9.i10.i, label %47, label %45

45:                                               ; preds = %39
  %46 = tail call ptr @realloc(ptr noundef nonnull %42, i64 noundef %44) #14
  br label %49

47:                                               ; preds = %39
  %48 = tail call noalias ptr @malloc(i64 noundef %44) #13
  br label %49

49:                                               ; preds = %47, %45
  %50 = phi ptr [ %46, %45 ], [ %48, %47 ]
  store ptr %50, ptr %41, align 8
  store i32 %40, ptr %1, align 8
  br label %Vec_PtrPush.exit

Vec_PtrPush.exit:                                 ; preds = %.Vec_PtrGrow.exit11_crit_edge.i, %Vec_PtrGrow.exit.i, %49
  %51 = phi ptr [ %.pre.i, %.Vec_PtrGrow.exit11_crit_edge.i ], [ %50, %49 ], [ %38, %Vec_PtrGrow.exit.i ]
  %52 = load i32, ptr %25, align 4
  %53 = add nsw i32 %52, 1
  store i32 %53, ptr %25, align 4
  %54 = sext i32 %52 to i64
  %55 = getelementptr inbounds ptr, ptr %51, i64 %54
  store ptr %0, ptr %55, align 8
  br label %.critedge

56:                                               ; preds = %.lr.ph, %56
  %indvars.iv = phi i64 [ 0, %.lr.ph ], [ %indvars.iv.next, %56 ]
  %.val14 = load ptr, ptr %0, align 8
  %.val15 = load ptr, ptr %23, align 8
  %57 = getelementptr i8, ptr %.val14, i64 32
  %.val14.val = load ptr, ptr %57, align 8
  %58 = getelementptr i8, ptr %.val14.val, i64 8
  %.val14.val.val = load ptr, ptr %58, align 8
  %59 = getelementptr inbounds nuw i32, ptr %.val15, i64 %indvars.iv
  %60 = load i32, ptr %59, align 4
  %61 = sext i32 %60 to i64
  %62 = getelementptr inbounds ptr, ptr %.val14.val.val, i64 %61
  %63 = load ptr, ptr %62, align 8
  tail call void @Abc_NtkMaxFlowCollectCut_rec(ptr noundef %63, ptr noundef %1)
  %indvars.iv.next = add nuw nsw i64 %indvars.iv, 1
  %.val13 = load i32, ptr %21, align 4
  %64 = sext i32 %.val13 to i64
  %65 = icmp slt i64 %indvars.iv.next, %64
  br i1 %65, label %56, label %.critedge, !llvm.loop !30

.critedge:                                        ; preds = %56, %.preheader, %2, %Vec_PtrPush.exit
  ret void
}